(lp0
(lp1
(lp2
a(lp3
a(lp4
a(lp5
a(lp6
a(lp7
a(lp8
a(lp9
a(lp10
a(lp11
a(lp12
a(lp13
a(lp14
a(lp15
a(lp16
aa(lp17
I0
aI0
aI0
aI0
aI1
aI1
aI1
aI1
aI1
aI2
aI2
aI2
aI2
aI2
aI2
aa(dp18
S'this\n'
p19
I0
sS'something\n'
p20
I2
sS'that\n'
p21
I1
saI3
a.